target datalayout = "e-m:e-p270:32:32-p271:32:32-p272:64:64-i64:64-i128:128-f80:128-n8:16:32:64-S128"
target triple = "x86_64-unknown-linux-gnu"

%"class.facebook::hermes::tracing::SynthTrace::TraceValue" = type { i32, %union.anon }
%union.anon = type { double }
%"class.llvh::StringRef" = type { ptr, i64 }
%"class.std::__cxx11::basic_string" = type { %"struct.std::__cxx11::basic_string<char>::_Alloc_hider", i64, %union.anon.13 }
%"struct.std::__cxx11::basic_string<char>::_Alloc_hider" = type { ptr }
%union.anon.13 = type { i64, [8 x i8] }
%"struct.facebook::hermes::tracing::SynthTrace::Record" = type { ptr, %"class.std::chrono::duration" }
%"class.std::chrono::duration" = type { i64 }
%"struct.facebook::hermes::tracing::SynthTrace::GetOrSetPropertyRecord" = type { %"struct.facebook::hermes::tracing::SynthTrace::Record", i64, %"class.facebook::hermes::tracing::SynthTrace::TraceValue", %"class.facebook::hermes::tracing::SynthTrace::TraceValue" }

@.str.53 = private unnamed_addr constant [6 x i8] c"objID\00", align 1
@.str.61 = private unnamed_addr constant [6 x i8] c"value\00", align 1
@.str.63 = private unnamed_addr constant [7 x i8] c"propID\00", align 1

; Function Attrs: mustprogress uwtable
define linkonce_odr hidden void @_ZN6hermes11JSONEmitter12emitKeyValueINSt7__cxx1112basic_stringIcSt11char_traitsIcESaIcEEEEEvN4llvh9StringRefERKT_(ptr noundef nonnull align 8 dereferenceable(72) %this, ptr %key.coerce0, i64 %key.coerce1, ptr noundef nonnull align 8 dereferenceable(32) %val) #1 comdat align 2 {
entry:
  %this.addr.i = alloca ptr, align 8
  %Str.addr.i = alloca ptr, align 8
  %key = alloca %"class.llvh::StringRef", align 8
  %this.addr = alloca ptr, align 8
  %val.addr = alloca ptr, align 8
  %agg.tmp = alloca %"class.llvh::StringRef", align 8
  %agg.tmp2 = alloca %"class.llvh::StringRef", align 8
  %0 = getelementptr inbounds { ptr, i64 }, ptr %key, i32 0, i32 0
  store ptr %key.coerce0, ptr %0, align 8
  %1 = getelementptr inbounds { ptr, i64 }, ptr %key, i32 0, i32 1
  store i64 %key.coerce1, ptr %1, align 8
  store ptr %this, ptr %this.addr, align 8
  store ptr %val, ptr %val.addr, align 8
  %this1 = load ptr, ptr %this.addr, align 8
  call void @llvm.memcpy.p0.p0.i64(ptr align 8 %agg.tmp, ptr align 8 %key, i64 16, i1 false)
  %2 = getelementptr inbounds { ptr, i64 }, ptr %agg.tmp, i32 0, i32 0
  %3 = load ptr, ptr %2, align 8
  %4 = getelementptr inbounds { ptr, i64 }, ptr %agg.tmp, i32 0, i32 1
  %5 = load i64, ptr %4, align 8
  call void @_ZN6hermes11JSONEmitter7emitKeyEN4llvh9StringRefE(ptr noundef nonnull align 8 dereferenceable(72) %this1, ptr %3, i64 %5)
  %6 = load ptr, ptr %val.addr, align 8
  store ptr %agg.tmp2, ptr %this.addr.i, align 8
  store ptr %6, ptr %Str.addr.i, align 8
  %this1.i = load ptr, ptr %this.addr.i, align 8
  %7 = load ptr, ptr %Str.addr.i, align 8
  %call.i = call noundef ptr @_ZNKSt7__cxx1112basic_stringIcSt11char_traitsIcESaIcEE4dataEv(ptr noundef nonnull align 8 dereferenceable(32) %7) #13
  store ptr %call.i, ptr %this1.i, align 8
  %Length.i = getelementptr inbounds %"class.llvh::StringRef", ptr %this1.i, i32 0, i32 1
  %8 = load ptr, ptr %Str.addr.i, align 8
  %call2.i = call noundef i64 @_ZNKSt7__cxx1112basic_stringIcSt11char_traitsIcESaIcEE6lengthEv(ptr noundef nonnull align 8 dereferenceable(32) %8) #13
  store i64 %call2.i, ptr %Length.i, align 8
  %9 = getelementptr inbounds { ptr, i64 }, ptr %agg.tmp2, i32 0, i32 0
  %10 = load ptr, ptr %9, align 8
  %11 = getelementptr inbounds { ptr, i64 }, ptr %agg.tmp2, i32 0, i32 1
  %12 = load i64, ptr %11, align 8
  call void @_ZN6hermes11JSONEmitter9emitValueEN4llvh9StringRefE(ptr noundef nonnull align 8 dereferenceable(72) %this1, ptr %10, i64 %12)
  ret void
}

; Function Attrs: mustprogress uwtable
define linkonce_odr hidden void @_ZN6hermes11JSONEmitter12emitKeyValueImEEvN4llvh9StringRefERKT_(ptr noundef nonnull align 8 dereferenceable(72) %this, ptr %key.coerce0, i64 %key.coerce1, ptr noundef nonnull align 8 dereferenceable(8) %val) #1 comdat align 2 {
entry:
  %key = alloca %"class.llvh::StringRef", align 8
  %this.addr = alloca ptr, align 8
  %val.addr = alloca ptr, align 8
  %agg.tmp = alloca %"class.llvh::StringRef", align 8
  %0 = getelementptr inbounds { ptr, i64 }, ptr %key, i32 0, i32 0
  store ptr %key.coerce0, ptr %0, align 8
  %1 = getelementptr inbounds { ptr, i64 }, ptr %key, i32 0, i32 1
  store i64 %key.coerce1, ptr %1, align 8
  store ptr %this, ptr %this.addr, align 8
  store ptr %val, ptr %val.addr, align 8
  %this1 = load ptr, ptr %this.addr, align 8
  call void @llvm.memcpy.p0.p0.i64(ptr align 8 %agg.tmp, ptr align 8 %key, i64 16, i1 false)
  %2 = getelementptr inbounds { ptr, i64 }, ptr %agg.tmp, i32 0, i32 0
  %3 = load ptr, ptr %2, align 8
  %4 = getelementptr inbounds { ptr, i64 }, ptr %agg.tmp, i32 0, i32 1
  %5 = load i64, ptr %4, align 8
  call void @_ZN6hermes11JSONEmitter7emitKeyEN4llvh9StringRefE(ptr noundef nonnull align 8 dereferenceable(72) %this1, ptr %3, i64 %5)
  %6 = load ptr, ptr %val.addr, align 8
  %7 = load i64, ptr %6, align 8
  call void @_ZN6hermes11JSONEmitter9emitValueEm(ptr noundef nonnull align 8 dereferenceable(72) %this1, i64 noundef %7)
  ret void
}

; Function Attrs: mustprogress uwtable
define hidden void @_ZNK8facebook6hermes7tracing10SynthTrace22GetOrSetPropertyRecord14toJSONInternalERN6hermes11JSONEmitterE(ptr noundef nonnull align 8 dereferenceable(56) %this, ptr noundef nonnull align 8 dereferenceable(72) %json) unnamed_addr #1 align 2 personality ptr @__gxx_personality_v0 {
entry:
  %this.addr.i20 = alloca ptr, align 8
  %Str.addr.i21 = alloca ptr, align 8
  %this.addr.i10 = alloca ptr, align 8
  %Str.addr.i11 = alloca ptr, align 8
  %this.addr.i = alloca ptr, align 8
  %Str.addr.i = alloca ptr, align 8
  %this.addr = alloca ptr, align 8
  %json.addr = alloca ptr, align 8
  %agg.tmp = alloca %"class.llvh::StringRef", align 8
  %agg.tmp2 = alloca %"class.llvh::StringRef", align 8
  %ref.tmp = alloca %"class.std::__cxx11::basic_string", align 8
  %agg.tmp3 = alloca %"class.facebook::hermes::tracing::SynthTrace::TraceValue", align 8
  %exn.slot = alloca ptr, align 8
  %ehselector.slot = alloca i32, align 4
  %agg.tmp4 = alloca %"class.llvh::StringRef", align 8
  %ref.tmp5 = alloca %"class.std::__cxx11::basic_string", align 8
  %agg.tmp6 = alloca %"class.facebook::hermes::tracing::SynthTrace::TraceValue", align 8
  store ptr %this, ptr %this.addr, align 8
  store ptr %json, ptr %json.addr, align 8
  %this1 = load ptr, ptr %this.addr, align 8
  %0 = load ptr, ptr %json.addr, align 8
  call void @_ZNK8facebook6hermes7tracing10SynthTrace6Record14toJSONInternalERN6hermes11JSONEmitterE(ptr noundef nonnull align 8 dereferenceable(16) %this1, ptr noundef nonnull align 8 dereferenceable(72) %0)
  %1 = load ptr, ptr %json.addr, align 8
  store ptr %agg.tmp, ptr %this.addr.i, align 8
  store ptr @.str.53, ptr %Str.addr.i, align 8
  %this1.i = load ptr, ptr %this.addr.i, align 8
  %2 = load ptr, ptr %Str.addr.i, align 8
  store ptr %2, ptr %this1.i, align 8
  %Length.i = getelementptr inbounds %"class.llvh::StringRef", ptr %this1.i, i32 0, i32 1
  %3 = load ptr, ptr %Str.addr.i, align 8
  %tobool.i = icmp ne ptr %3, null
  br i1 %tobool.i, label %cond.true.i, label %cond.false.i

cond.true.i:                                      ; preds = %entry
  %4 = load ptr, ptr %Str.addr.i, align 8
  %call.i = call i64 @strlen(ptr noundef %4) #4
  br label %_ZN4llvh9StringRefC2EPKc.exit

cond.false.i:                                     ; preds = %entry
  br label %_ZN4llvh9StringRefC2EPKc.exit

_ZN4llvh9StringRefC2EPKc.exit:                    ; preds = %cond.false.i, %cond.true.i
  %cond.i = phi i64 [ %call.i, %cond.true.i ], [ 0, %cond.false.i ]
  store i64 %cond.i, ptr %Length.i, align 8
  %objID_ = getelementptr inbounds %"struct.facebook::hermes::tracing::SynthTrace::GetOrSetPropertyRecord", ptr %this1, i32 0, i32 1
  %5 = getelementptr inbounds { ptr, i64 }, ptr %agg.tmp, i32 0, i32 0
  %6 = load ptr, ptr %5, align 8
  %7 = getelementptr inbounds { ptr, i64 }, ptr %agg.tmp, i32 0, i32 1
  %8 = load i64, ptr %7, align 8
  call void @_ZN6hermes11JSONEmitter12emitKeyValueImEEvN4llvh9StringRefERKT_(ptr noundef nonnull align 8 dereferenceable(72) %1, ptr %6, i64 %8, ptr noundef nonnull align 8 dereferenceable(8) %objID_)
  %9 = load ptr, ptr %json.addr, align 8
  store ptr %agg.tmp2, ptr %this.addr.i10, align 8
  store ptr @.str.63, ptr %Str.addr.i11, align 8
  %this1.i12 = load ptr, ptr %this.addr.i10, align 8
  %10 = load ptr, ptr %Str.addr.i11, align 8
  store ptr %10, ptr %this1.i12, align 8
  %Length.i13 = getelementptr inbounds %"class.llvh::StringRef", ptr %this1.i12, i32 0, i32 1
  %11 = load ptr, ptr %Str.addr.i11, align 8
  %tobool.i14 = icmp ne ptr %11, null
  br i1 %tobool.i14, label %cond.true.i17, label %cond.false.i15

cond.true.i17:                                    ; preds = %_ZN4llvh9StringRefC2EPKc.exit
  %12 = load ptr, ptr %Str.addr.i11, align 8
  %call.i18 = call i64 @strlen(ptr noundef %12) #4
  br label %_ZN4llvh9StringRefC2EPKc.exit19

cond.false.i15:                                   ; preds = %_ZN4llvh9StringRefC2EPKc.exit
  br label %_ZN4llvh9StringRefC2EPKc.exit19

_ZN4llvh9StringRefC2EPKc.exit19:                  ; preds = %cond.false.i15, %cond.true.i17
  %cond.i16 = phi i64 [ %call.i18, %cond.true.i17 ], [ 0, %cond.false.i15 ]
  store i64 %cond.i16, ptr %Length.i13, align 8
  %propID_ = getelementptr inbounds %"struct.facebook::hermes::tracing::SynthTrace::GetOrSetPropertyRecord", ptr %this1, i32 0, i32 2
  call void @llvm.memcpy.p0.p0.i64(ptr align 8 %agg.tmp3, ptr align 8 %propID_, i64 16, i1 false)
  %13 = getelementptr inbounds { i32, i64 }, ptr %agg.tmp3, i32 0, i32 0
  %14 = load i32, ptr %13, align 8
  %15 = getelementptr inbounds { i32, i64 }, ptr %agg.tmp3, i32 0, i32 1
  %16 = load i64, ptr %15, align 8
  call void @_ZN8facebook6hermes7tracing10SynthTrace6encodeB5cxx11ENS2_10TraceValueE(ptr sret(%"class.std::__cxx11::basic_string") align 8 %ref.tmp, i32 %14, i64 %16)
  %17 = getelementptr inbounds { ptr, i64 }, ptr %agg.tmp2, i32 0, i32 0
  %18 = load ptr, ptr %17, align 8
  %19 = getelementptr inbounds { ptr, i64 }, ptr %agg.tmp2, i32 0, i32 1
  %20 = load i64, ptr %19, align 8
  invoke void @_ZN6hermes11JSONEmitter12emitKeyValueINSt7__cxx1112basic_stringIcSt11char_traitsIcESaIcEEEEEvN4llvh9StringRefERKT_(ptr noundef nonnull align 8 dereferenceable(72) %9, ptr %18, i64 %20, ptr noundef nonnull align 8 dereferenceable(32) %ref.tmp)
          to label %invoke.cont unwind label %lpad

invoke.cont:                                      ; preds = %_ZN4llvh9StringRefC2EPKc.exit19
  call void @_ZNSt7__cxx1112basic_stringIcSt11char_traitsIcESaIcEED1Ev(ptr noundef nonnull align 8 dereferenceable(32) %ref.tmp) #13
  %21 = load ptr, ptr %json.addr, align 8
  store ptr %agg.tmp4, ptr %this.addr.i20, align 8
  store ptr @.str.61, ptr %Str.addr.i21, align 8
  %this1.i22 = load ptr, ptr %this.addr.i20, align 8
  %22 = load ptr, ptr %Str.addr.i21, align 8
  store ptr %22, ptr %this1.i22, align 8
  %Length.i23 = getelementptr inbounds %"class.llvh::StringRef", ptr %this1.i22, i32 0, i32 1
  %23 = load ptr, ptr %Str.addr.i21, align 8
  %tobool.i24 = icmp ne ptr %23, null
  br i1 %tobool.i24, label %cond.true.i27, label %cond.false.i25

cond.true.i27:                                    ; preds = %invoke.cont
  %24 = load ptr, ptr %Str.addr.i21, align 8
  %call.i28 = call i64 @strlen(ptr noundef %24) #4
  br label %_ZN4llvh9StringRefC2EPKc.exit29

cond.false.i25:                                   ; preds = %invoke.cont
  br label %_ZN4llvh9StringRefC2EPKc.exit29

_ZN4llvh9StringRefC2EPKc.exit29:                  ; preds = %cond.false.i25, %cond.true.i27
  %cond.i26 = phi i64 [ %call.i28, %cond.true.i27 ], [ 0, %cond.false.i25 ]
  store i64 %cond.i26, ptr %Length.i23, align 8
  %value_ = getelementptr inbounds %"struct.facebook::hermes::tracing::SynthTrace::GetOrSetPropertyRecord", ptr %this1, i32 0, i32 3
  call void @llvm.memcpy.p0.p0.i64(ptr align 8 %agg.tmp6, ptr align 8 %value_, i64 16, i1 false)
  %25 = getelementptr inbounds { i32, i64 }, ptr %agg.tmp6, i32 0, i32 0
  %26 = load i32, ptr %25, align 8
  %27 = getelementptr inbounds { i32, i64 }, ptr %agg.tmp6, i32 0, i32 1
  %28 = load i64, ptr %27, align 8
  call void @_ZN8facebook6hermes7tracing10SynthTrace6encodeB5cxx11ENS2_10TraceValueE(ptr sret(%"class.std::__cxx11::basic_string") align 8 %ref.tmp5, i32 %26, i64 %28)
  %29 = getelementptr inbounds { ptr, i64 }, ptr %agg.tmp4, i32 0, i32 0
  %30 = load ptr, ptr %29, align 8
  %31 = getelementptr inbounds { ptr, i64 }, ptr %agg.tmp4, i32 0, i32 1
  %32 = load i64, ptr %31, align 8
  invoke void @_ZN6hermes11JSONEmitter12emitKeyValueINSt7__cxx1112basic_stringIcSt11char_traitsIcESaIcEEEEEvN4llvh9StringRefERKT_(ptr noundef nonnull align 8 dereferenceable(72) %21, ptr %30, i64 %32, ptr noundef nonnull align 8 dereferenceable(32) %ref.tmp5)
          to label %invoke.cont8 unwind label %lpad7

invoke.cont8:                                     ; preds = %_ZN4llvh9StringRefC2EPKc.exit29
  call void @_ZNSt7__cxx1112basic_stringIcSt11char_traitsIcESaIcEED1Ev(ptr noundef nonnull align 8 dereferenceable(32) %ref.tmp5) #13
  ret void

lpad:                                             ; preds = %_ZN4llvh9StringRefC2EPKc.exit19
  %33 = landingpad { ptr, i32 }
          cleanup
  %34 = extractvalue { ptr, i32 } %33, 0
  store ptr %34, ptr %exn.slot, align 8
  %35 = extractvalue { ptr, i32 } %33, 1
  store i32 %35, ptr %ehselector.slot, align 4
  call void @_ZNSt7__cxx1112basic_stringIcSt11char_traitsIcESaIcEED1Ev(ptr noundef nonnull align 8 dereferenceable(32) %ref.tmp) #13
  br label %eh.resume

lpad7:                                            ; preds = %_ZN4llvh9StringRefC2EPKc.exit29
  %36 = landingpad { ptr, i32 }
          cleanup
  %37 = extractvalue { ptr, i32 } %36, 0
  store ptr %37, ptr %exn.slot, align 8
  %38 = extractvalue { ptr, i32 } %36, 1
  store i32 %38, ptr %ehselector.slot, align 4
  call void @_ZNSt7__cxx1112basic_stringIcSt11char_traitsIcESaIcEED1Ev(ptr noundef nonnull align 8 dereferenceable(32) %ref.tmp5) #13
  br label %eh.resume

eh.resume:                                        ; preds = %lpad7, %lpad
  %exn = load ptr, ptr %exn.slot, align 8
  %sel = load i32, ptr %ehselector.slot, align 4
  %lpad.val = insertvalue { ptr, i32 } poison, ptr %exn, 0
  %lpad.val9 = insertvalue { ptr, i32 } %lpad.val, i32 %sel, 1
  resume { ptr, i32 } %lpad.val9
}